target datalayout = "e-m:e-p270:32:32-p271:32:32-p272:64:64-i64:64-i128:128-f80:128-n8:16:32:64-S128"
target triple = "x86_64-pc-linux-gnu"

%struct.QTailQLink = type { ptr, ptr }
%struct.QemuMutex = type { %union.pthread_mutex_t, i8 }
%union.pthread_mutex_t = type { %struct.__pthread_mutex_s }
%struct.__pthread_mutex_s = type { i32, i32, i32, i32, i32, i16, i16, %struct.__pthread_internal_list }
%struct.__pthread_internal_list = type { ptr, ptr }
%struct.DriveInfo = type { i32, i32, i32, i32, i8, i32, ptr, %union.anon.10 }
%union.anon.10 = type { %struct.QTailQLink }
%struct.QemuLockable = type { ptr, ptr, ptr }
%struct.BlockJob = type { %struct.Job, i32, i64, %struct.RateLimit, ptr, %struct.Notifier, %struct.Notifier, %struct.Notifier, %struct.Notifier, %struct.Notifier, ptr }
%struct.Job = type { ptr, ptr, ptr, i8, i8, ptr, ptr, %struct.ProgressMeter, ptr, i32, i32, %struct.QEMUTimer, i32, i8, i8, i8, i8, i8, i8, i32, ptr, %struct.NotifierList, %struct.NotifierList, %struct.NotifierList, %struct.NotifierList, %struct.NotifierList, %struct.anon.12, ptr, %struct.anon.13 }
%struct.ProgressMeter = type { i64, i64, %struct.QemuMutex }
%struct.QEMUTimer = type { i64, ptr, ptr, ptr, ptr, i32, i32 }
%struct.NotifierList = type { %struct.anon.11 }
%struct.anon.11 = type { ptr }
%struct.anon.12 = type { ptr, ptr }
%struct.anon.13 = type { ptr, ptr }
%struct.RateLimit = type { %struct.QemuMutex, i64, i64, i64, i64, i64 }
%struct.Notifier = type { ptr, %struct.anon.14 }
%struct.anon.14 = type { ptr, ptr }

@.str = private unnamed_addr constant [22 x i8] c"qemu_in_main_thread()\00", align 1
@.str.1 = private unnamed_addr constant [19 x i8] c"../qemu/blockdev.c\00", align 1
@__PRETTY_FUNCTION__.blockdev_mark_auto_del = private unnamed_addr constant [44 x i8] c"void blockdev_mark_auto_del(BlockBackend *)\00", align 1
@job_mutex = external global %struct.QemuMutex, align 8

; Function Attrs: inlinehint nounwind sspstrong uwtable
define internal void @qemu_lockable_unlock(ptr noundef %0) #5 {
  %2 = alloca ptr, align 8
  store ptr %0, ptr %2, align 8
  %3 = load ptr, ptr %2, align 8
  %4 = getelementptr inbounds nuw %struct.QemuLockable, ptr %3, i32 0, i32 2
  %5 = load ptr, ptr %4, align 8
  %6 = load ptr, ptr %2, align 8
  %7 = getelementptr inbounds nuw %struct.QemuLockable, ptr %6, i32 0, i32 0
  %8 = load ptr, ptr %7, align 8
  call void %5(ptr noundef %8)
  ret void
}

; Function Attrs: inlinehint nounwind sspstrong uwtable
define internal void @qemu_lockable_auto_unlock(ptr noundef %0) #5 {
  %2 = alloca ptr, align 8
  store ptr %0, ptr %2, align 8
  %3 = load ptr, ptr %2, align 8
  %4 = icmp ne ptr %3, null
  br i1 %4, label %5, label %7

5:                                                ; preds = %1
  %6 = load ptr, ptr %2, align 8
  call void @qemu_lockable_unlock(ptr noundef %6)
  br label %7

7:                                                ; preds = %5, %1
  ret void
}

; Function Attrs: inlinehint nounwind sspstrong uwtable
define internal void @glib_autoptr_clear_QemuLockable(ptr noundef %0) #5 {
  %2 = alloca ptr, align 8
  store ptr %0, ptr %2, align 8
  %3 = load ptr, ptr %2, align 8
  %4 = icmp ne ptr %3, null
  br i1 %4, label %5, label %7

5:                                                ; preds = %1
  %6 = load ptr, ptr %2, align 8
  call void @qemu_lockable_auto_unlock(ptr noundef %6)
  br label %7

7:                                                ; preds = %5, %1
  ret void
}

; Function Attrs: inlinehint nounwind sspstrong uwtable
define internal void @qemu_lockable_lock(ptr noundef %0) #5 {
  %2 = alloca ptr, align 8
  store ptr %0, ptr %2, align 8
  %3 = load ptr, ptr %2, align 8
  %4 = getelementptr inbounds nuw %struct.QemuLockable, ptr %3, i32 0, i32 1
  %5 = load ptr, ptr %4, align 8
  %6 = load ptr, ptr %2, align 8
  %7 = getelementptr inbounds nuw %struct.QemuLockable, ptr %6, i32 0, i32 0
  %8 = load ptr, ptr %7, align 8
  call void %5(ptr noundef %8)
  ret void
}

; Function Attrs: inlinehint nounwind sspstrong uwtable
define internal void @glib_autoptr_cleanup_QemuLockable(ptr noundef %0) #5 {
  %2 = alloca ptr, align 8
  store ptr %0, ptr %2, align 8
  %3 = load ptr, ptr %2, align 8
  %4 = load ptr, ptr %3, align 8
  call void @glib_autoptr_clear_QemuLockable(ptr noundef %4)
  ret void
}

; Function Attrs: inlinehint nounwind sspstrong uwtable
define internal ptr @qemu_lockable_auto_lock(ptr noundef %0) #5 {
  %2 = alloca ptr, align 8
  store ptr %0, ptr %2, align 8
  %3 = load ptr, ptr %2, align 8
  call void @qemu_lockable_lock(ptr noundef %3)
  %4 = load ptr, ptr %2, align 8
  ret ptr %4
}

; Function Attrs: alwaysinline nounwind sspstrong uwtable
define internal ptr @qemu_make_lockable(ptr noundef %0, ptr noundef %1) #6 {
  %3 = alloca ptr, align 8
  %4 = alloca ptr, align 8
  store ptr %0, ptr %3, align 8
  store ptr %1, ptr %4, align 8
  %5 = load ptr, ptr %3, align 8
  %6 = icmp ne ptr %5, null
  br i1 %6, label %7, label %9

7:                                                ; preds = %2
  %8 = load ptr, ptr %4, align 8
  br label %10

9:                                                ; preds = %2
  br label %10

10:                                               ; preds = %9, %7
  %11 = phi ptr [ %8, %7 ], [ null, %9 ]
  ret ptr %11
}

; Function Attrs: nounwind sspstrong uwtable
define dso_local void @blockdev_mark_auto_del(ptr noundef %0) #0 {
  %2 = alloca ptr, align 8
  %3 = alloca ptr, align 8
  %4 = alloca ptr, align 8
  %5 = alloca i32, align 4
  %6 = alloca ptr, align 8
  %7 = alloca %struct.QemuLockable, align 8
  store ptr %0, ptr %2, align 8
  call void @llvm.lifetime.start.p0(i64 8, ptr %3) #16
  %8 = load ptr, ptr %2, align 8
  %9 = call ptr @blk_legacy_dinfo(ptr noundef %8)
  store ptr %9, ptr %3, align 8
  call void @llvm.lifetime.start.p0(i64 8, ptr %4) #16
  store ptr null, ptr %4, align 8, !annotation !4
  br label %10

10:                                               ; preds = %1
  %11 = call zeroext i1 @qemu_in_main_thread()
  br i1 %11, label %12, label %13

12:                                               ; preds = %10
  br label %14

13:                                               ; preds = %10
  call void @__assert_fail(ptr noundef @.str, ptr noundef @.str.1, i32 noundef 148, ptr noundef @__PRETTY_FUNCTION__.blockdev_mark_auto_del) #15
  unreachable

14:                                               ; preds = %12
  br label %15

15:                                               ; preds = %14
  br label %16

16:                                               ; preds = %15
  %17 = load ptr, ptr %3, align 8
  %18 = icmp ne ptr %17, null
  br i1 %18, label %20, label %19

19:                                               ; preds = %16
  store i32 1, ptr %5, align 4
  br label %69

20:                                               ; preds = %16
  call void @llvm.lifetime.start.p0(i64 8, ptr %6) #16
  %21 = getelementptr inbounds nuw %struct.QemuLockable, ptr %7, i32 0, i32 0
  store ptr @job_mutex, ptr %21, align 8
  %22 = getelementptr inbounds nuw %struct.QemuLockable, ptr %7, i32 0, i32 1
  store ptr @qemu_lockable_mutex_lock, ptr %22, align 8
  %23 = getelementptr inbounds nuw %struct.QemuLockable, ptr %7, i32 0, i32 2
  store ptr @qemu_lockable_mutex_unlock, ptr %23, align 8
  %24 = call ptr @qemu_make_lockable(ptr noundef @job_mutex, ptr noundef %7)
  %25 = call ptr @qemu_lockable_auto_lock(ptr noundef %24)
  store ptr %25, ptr %6, align 8
  br label %26

26:                                               ; preds = %63, %20
  %27 = call ptr @block_job_next_locked(ptr noundef null)
  store ptr %27, ptr %4, align 8
  br label %28

28:                                               ; preds = %53, %26
  %29 = load ptr, ptr %4, align 8
  %30 = icmp ne ptr %29, null
  br i1 %30, label %31, label %51

31:                                               ; preds = %28
  %32 = load ptr, ptr %4, align 8
  %33 = getelementptr inbounds nuw %struct.BlockJob, ptr %32, i32 0, i32 0
  %34 = getelementptr inbounds nuw %struct.Job, ptr %33, i32 0, i32 16
  %35 = load i8, ptr %34, align 1, !range !7, !noundef !8
  %36 = trunc i8 %35 to i1
  br i1 %36, label %49, label %37

37:                                               ; preds = %31
  %38 = load ptr, ptr %4, align 8
  %39 = getelementptr inbounds nuw %struct.BlockJob, ptr %38, i32 0, i32 0
  %40 = getelementptr inbounds nuw %struct.Job, ptr %39, i32 0, i32 18
  %41 = load i8, ptr %40, align 1, !range !7, !noundef !8
  %42 = trunc i8 %41 to i1
  br i1 %42, label %49, label %43

43:                                               ; preds = %37
  %44 = load ptr, ptr %4, align 8
  %45 = load ptr, ptr %2, align 8
  %46 = call ptr @blk_bs(ptr noundef %45)
  %47 = call zeroext i1 @block_job_has_bdrv(ptr noundef %44, ptr noundef %46)
  %48 = xor i1 %47, true
  br label %49

49:                                               ; preds = %43, %37, %31
  %50 = phi i1 [ true, %37 ], [ true, %31 ], [ %48, %43 ]
  br label %51

51:                                               ; preds = %49, %28
  %52 = phi i1 [ false, %28 ], [ %50, %49 ]
  br i1 %52, label %53, label %56

53:                                               ; preds = %51
  %54 = load ptr, ptr %4, align 8
  %55 = call ptr @block_job_next_locked(ptr noundef %54)
  store ptr %55, ptr %4, align 8
  br label %28, !llvm.loop !9

56:                                               ; preds = %51
  %57 = load ptr, ptr %4, align 8
  %58 = icmp ne ptr %57, null
  br i1 %58, label %59, label %62

59:                                               ; preds = %56
  %60 = load ptr, ptr %4, align 8
  %61 = getelementptr inbounds nuw %struct.BlockJob, ptr %60, i32 0, i32 0
  call void @job_cancel_locked(ptr noundef %61, i1 noundef zeroext false)
  br label %62

62:                                               ; preds = %59, %56
  br label %63

63:                                               ; preds = %62
  %64 = load ptr, ptr %4, align 8
  %65 = icmp ne ptr %64, null
  br i1 %65, label %26, label %66, !llvm.loop !10

66:                                               ; preds = %63
  %67 = load ptr, ptr %3, align 8
  %68 = getelementptr inbounds nuw %struct.DriveInfo, ptr %67, i32 0, i32 3
  store i32 1, ptr %68, align 4
  call void @glib_autoptr_cleanup_QemuLockable(ptr noundef %6)
  call void @llvm.lifetime.end.p0(i64 8, ptr %6) #16
  store i32 0, ptr %5, align 4
  br label %69

69:                                               ; preds = %66, %19
  call void @llvm.lifetime.end.p0(i64 8, ptr %4) #16
  call void @llvm.lifetime.end.p0(i64 8, ptr %3) #16
  %70 = load i32, ptr %5, align 4
  switch i32 %70, label %72 [
    i32 0, label %71
    i32 1, label %71
  ]

71:                                               ; preds = %69, %69
  ret void

72:                                               ; preds = %69
  unreachable
}