; Function Attrs: nounwind sspstrong uwtable
define dso_local void @blockdev_mark_auto_del(ptr noundef %0) local_unnamed_addr #0 {
  %2 = tail call ptr @blk_legacy_dinfo(ptr noundef %0) #14
  %3 = tail call zeroext i1 @qemu_in_main_thread() #14
  br i1 %3, label %5, label %4

4:                                                ; preds = %1
  tail call void @__assert_fail(ptr noundef nonnull @.str, ptr noundef nonnull @.str.1, i32 noundef 148, ptr noundef nonnull @__PRETTY_FUNCTION__.blockdev_mark_auto_del) #15
  unreachable

5:                                                ; preds = %1
  %.not = icmp eq ptr %2, null
  br i1 %.not, label %23, label %6

6:                                                ; preds = %5
  %7 = load atomic i64, ptr @qemu_mutex_lock_func monotonic, align 8
  %8 = inttoptr i64 %7 to ptr
  tail call void %8(ptr noundef nonnull @job_mutex, ptr noundef nonnull @.str.183, i32 noundef 56) #14
  %9 = tail call ptr @block_job_next_locked(ptr noundef null) #14
  %.not151922 = icmp eq ptr %9, null
  br i1 %.not151922, label %glib_autoptr_cleanup_QemuLockable.exit, label %.lr.ph

.lr.ph:                                           ; preds = %6, %.lr.ph.backedge
  %.020 = phi ptr [ %.020.be, %.lr.ph.backedge ], [ %9, %6 ]
  %10 = getelementptr inbounds nuw i8, ptr %.020, i64 183
  %11 = load i8, ptr %10, align 1, !range !6, !noundef !7
  %12 = trunc nuw i8 %11 to i1
  br i1 %12, label %.critedge2, label %13

13:                                               ; preds = %.lr.ph
  %14 = getelementptr inbounds nuw i8, ptr %.020, i64 185
  %15 = load i8, ptr %14, align 1, !range !6, !noundef !7
  %16 = trunc nuw i8 %15 to i1
  br i1 %16, label %.critedge2, label %17

17:                                               ; preds = %13
  %18 = tail call ptr @blk_bs(ptr noundef %0) #14
  %19 = tail call zeroext i1 @block_job_has_bdrv(ptr noundef nonnull %.020, ptr noundef %18) #14
  br i1 %19, label %.critedge16, label %.critedge2

.critedge2:                                       ; preds = %13, %.lr.ph, %17
  %20 = tail call ptr @block_job_next_locked(ptr noundef nonnull %.020) #14
  %.not15 = icmp eq ptr %20, null
  br i1 %.not15, label %glib_autoptr_cleanup_QemuLockable.exit, label %.lr.ph.backedge

.lr.ph.backedge:                                  ; preds = %.critedge2, %.critedge16
  %.020.be = phi ptr [ %20, %.critedge2 ], [ %21, %.critedge16 ]
  br label %.lr.ph, !llvm.loop !8

.critedge16:                                      ; preds = %17
  tail call void @job_cancel_locked(ptr noundef nonnull %.020, i1 noundef zeroext false) #14
  %21 = tail call ptr @block_job_next_locked(ptr noundef null) #14
  %.not1519 = icmp eq ptr %21, null
  br i1 %.not1519, label %glib_autoptr_cleanup_QemuLockable.exit, label %.lr.ph.backedge

glib_autoptr_cleanup_QemuLockable.exit:           ; preds = %.critedge16, %.critedge2, %6
  %22 = getelementptr inbounds nuw i8, ptr %2, i64 12
  store i32 1, ptr %22, align 4
  tail call void @qemu_mutex_unlock_impl(ptr noundef nonnull @job_mutex, ptr noundef nonnull @.str.183, i32 noundef 56) #14
  br label %23

23:                                               ; preds = %5, %glib_autoptr_cleanup_QemuLockable.exit
  ret void
}